target datalayout = "e-m:e-p270:32:32-p271:32:32-p272:64:64-i64:64-i128:128-f80:128-n8:16:32:64-S128"
target triple = "x86_64-pc-linux-gnu"

%struct._zend_phpdbg_globals = type { [11 x %struct._zend_array], %struct._zend_array, %struct._zend_array, ptr, ptr, %struct.phpdbg_frame_t, i32, ptr, %struct.phpdbg_lexer_data, ptr, %struct.sigaction, i32, i64, %struct.phpdbg_btree, %struct.phpdbg_btree, %struct._zend_array, %struct._zend_array, %struct._zend_array, %struct._zend_array, ptr, ptr, i8, ptr, ptr, ptr, i64, ptr, %struct._zval_struct, i32, i32, i8, i8, ptr, ptr, ptr, %struct._zend_array, ptr, ptr, ptr, [3 x %struct.anon.8], ptr, %struct.anon.9, i64, [2 x ptr], [3 x ptr], ptr, i8, ptr, ptr, [500 x i8], i32, %struct.phpdbg_signal_safe_mem, ptr, i64, ptr, i64 }
%struct.phpdbg_frame_t = type { i32, ptr, ptr }
%struct.phpdbg_lexer_data = type { i32, ptr, ptr, ptr, ptr, i32 }
%struct.sigaction = type { %union.anon.2, %struct.__sigset_t, i32, ptr }
%union.anon.2 = type { ptr }
%struct.__sigset_t = type { [16 x i64] }
%struct.phpdbg_btree = type { i64, i64, i8, ptr }
%struct._zval_struct = type { %union._zend_value, %union.anon.4, %union.anon.7 }
%union._zend_value = type { i64 }
%union.anon.4 = type { i32 }
%union.anon.7 = type { i32 }
%struct._zend_array = type { %struct._zend_refcounted_h, %union.anon.0, i32, %union.anon.1, i32, i32, i32, i32, i64, ptr }
%struct._zend_refcounted_h = type { i32, %union.anon }
%union.anon = type { i32 }
%union.anon.0 = type { i32 }
%union.anon.1 = type { ptr }
%struct.anon.8 = type { i32 }
%struct.anon.9 = type { i8, i32, i32, ptr, i32 }
%struct.phpdbg_signal_safe_mem = type { ptr, i8, ptr, ptr }
%struct._phpdbg_breakline_t = type { i32, i8, i64, i8, ptr, i64, ptr }

@phpdbg_globals = external global %struct._zend_phpdbg_globals, align 8
@.str.25 = private unnamed_addr constant [29 x i8] c"Breakpoint #%d added at #%lu\00", align 1
@.str.44 = private unnamed_addr constant [34 x i8] c"Breakpoint exists for opline #%lu\00", align 1

; Function Attrs: nounwind uwtable
define internal void @_phpdbg_break_mapping(i32 noundef %0, ptr noundef %1) #0 {
  %3 = alloca ptr, align 8
  %4 = alloca i64, align 8
  %5 = alloca ptr, align 8
  %6 = alloca %struct._zval_struct, align 8
  %7 = alloca ptr, align 8
  %8 = alloca i32, align 4
  %9 = alloca ptr, align 8
  store i32 %0, ptr %8, align 4
  store ptr %1, ptr %9, align 8
  %10 = load i32, ptr %8, align 4
  %11 = sext i32 %10 to i64
  %12 = load ptr, ptr %9, align 8
  store ptr getelementptr inbounds ([11 x %struct._zend_array], ptr @phpdbg_globals, i64 0, i64 10), ptr %3, align 8
  store i64 %11, ptr %4, align 8
  store ptr %12, ptr %5, align 8
  %13 = load ptr, ptr %5, align 8
  store ptr %13, ptr %6, align 8
  %14 = getelementptr inbounds %struct._zval_struct, ptr %6, i32 0, i32 1
  store i32 13, ptr %14, align 8
  %15 = load ptr, ptr %3, align 8
  %16 = load i64, ptr %4, align 8
  %17 = call ptr @zend_hash_index_update(ptr noundef %15, i64 noundef %16, ptr noundef %6) #11
  store ptr %17, ptr %7, align 8
  %18 = load ptr, ptr %7, align 8
  %19 = load ptr, ptr %18, align 8
  %20 = icmp ne ptr %19, null
  call void @llvm.assume(i1 %20)
  ret void
}

; Function Attrs: nounwind uwtable
define void @phpdbg_set_breakpoint_opline_ex(ptr noundef %0) #0 {
  %2 = alloca ptr, align 8
  %3 = alloca i64, align 8
  %4 = alloca ptr, align 8
  %5 = alloca %struct._zval_struct, align 8
  %6 = alloca ptr, align 8
  %7 = alloca i32, align 4
  %8 = alloca ptr, align 8
  %9 = alloca i64, align 8
  %10 = alloca ptr, align 8
  %11 = alloca i64, align 8
  %12 = alloca ptr, align 8
  %13 = alloca ptr, align 8
  %14 = alloca i64, align 8
  %15 = alloca ptr, align 8
  %16 = alloca %struct._phpdbg_breakline_t, align 8
  store ptr %0, ptr %15, align 8
  %17 = load ptr, ptr %15, align 8
  %18 = ptrtoint ptr %17 to i64
  store ptr getelementptr inbounds ([11 x %struct._zend_array], ptr @phpdbg_globals, i64 0, i64 3), ptr %13, align 8
  store i64 %18, ptr %14, align 8
  %19 = load ptr, ptr %13, align 8
  %20 = load i64, ptr %14, align 8
  %21 = call ptr @zend_hash_index_find(ptr noundef %19, i64 noundef %20) #11
  %22 = icmp ne ptr %21, null
  br i1 %22, label %303, label %23

23:                                               ; preds = %1
  %24 = load i64, ptr getelementptr inbounds (%struct._zend_phpdbg_globals, ptr @phpdbg_globals, i32 0, i32 53), align 8
  %25 = or i64 %24, 16
  store i64 %25, ptr getelementptr inbounds (%struct._zend_phpdbg_globals, ptr @phpdbg_globals, i32 0, i32 53), align 8
  br label %26

26:                                               ; preds = %23
  call void @llvm.memset.p0.i64(ptr align 8 %16, i8 0, i64 48, i1 false)
  %27 = load i32, ptr getelementptr inbounds (%struct._zend_phpdbg_globals, ptr @phpdbg_globals, i32 0, i32 28), align 8
  %28 = add nsw i32 %27, 1
  store i32 %28, ptr getelementptr inbounds (%struct._zend_phpdbg_globals, ptr @phpdbg_globals, i32 0, i32 28), align 8
  %29 = getelementptr inbounds %struct._phpdbg_breakline_t, ptr %16, i32 0, i32 0
  store i32 %27, ptr %29, align 8
  %30 = getelementptr inbounds %struct._phpdbg_breakline_t, ptr %16, i32 0, i32 1
  store i8 3, ptr %30, align 4
  %31 = getelementptr inbounds %struct._phpdbg_breakline_t, ptr %16, i32 0, i32 3
  store i8 0, ptr %31, align 8
  %32 = getelementptr inbounds %struct._phpdbg_breakline_t, ptr %16, i32 0, i32 2
  store i64 0, ptr %32, align 8
  br label %33

33:                                               ; preds = %26
  %34 = load ptr, ptr %15, align 8
  %35 = ptrtoint ptr %34 to i64
  %36 = getelementptr inbounds %struct._phpdbg_breakline_t, ptr %16, i32 0, i32 5
  store i64 %35, ptr %36, align 8
  %37 = getelementptr inbounds %struct._phpdbg_breakline_t, ptr %16, i32 0, i32 6
  store ptr null, ptr %37, align 8
  %38 = load ptr, ptr %15, align 8
  %39 = ptrtoint ptr %38 to i64
  store ptr getelementptr inbounds ([11 x %struct._zend_array], ptr @phpdbg_globals, i64 0, i64 3), ptr %8, align 8
  store i64 %39, ptr %9, align 8
  store ptr %16, ptr %10, align 8
  store i64 48, ptr %11, align 8
  %40 = load ptr, ptr %8, align 8
  %41 = getelementptr inbounds %struct._zend_refcounted_h, ptr %40, i32 0, i32 1
  %42 = load i32, ptr %41, align 4
  store i32 %42, ptr %7, align 4
  %43 = load i32, ptr %7, align 4
  %44 = and i32 %43, 1008
  %45 = and i32 %44, 128
  %46 = icmp ne i32 %45, 0
  br i1 %46, label %47, label %50

47:                                               ; preds = %33
  %48 = load i64, ptr %11, align 8
  %49 = call noalias ptr @__zend_malloc(i64 noundef %48) #12
  br label %279

50:                                               ; preds = %33
  %51 = load i64, ptr %11, align 8
  %52 = call i1 @llvm.is.constant.i64(i64 %51)
  br i1 %52, label %53, label %274

53:                                               ; preds = %50
  %54 = load i64, ptr %11, align 8
  %55 = icmp ule i64 %54, 8
  br i1 %55, label %56, label %58

56:                                               ; preds = %53
  %57 = call noalias ptr @_emalloc_8() #11
  br label %272

58:                                               ; preds = %53
  %59 = load i64, ptr %11, align 8
  %60 = icmp ule i64 %59, 16
  br i1 %60, label %61, label %63

61:                                               ; preds = %58
  %62 = call noalias ptr @_emalloc_16() #11
  br label %270

63:                                               ; preds = %58
  %64 = load i64, ptr %11, align 8
  %65 = icmp ule i64 %64, 24
  br i1 %65, label %66, label %68

66:                                               ; preds = %63
  %67 = call noalias ptr @_emalloc_24() #11
  br label %268

68:                                               ; preds = %63
  %69 = load i64, ptr %11, align 8
  %70 = icmp ule i64 %69, 32
  br i1 %70, label %71, label %73

71:                                               ; preds = %68
  %72 = call noalias ptr @_emalloc_32() #11
  br label %266

73:                                               ; preds = %68
  %74 = load i64, ptr %11, align 8
  %75 = icmp ule i64 %74, 40
  br i1 %75, label %76, label %78

76:                                               ; preds = %73
  %77 = call noalias ptr @_emalloc_40() #11
  br label %264

78:                                               ; preds = %73
  %79 = load i64, ptr %11, align 8
  %80 = icmp ule i64 %79, 48
  br i1 %80, label %81, label %83

81:                                               ; preds = %78
  %82 = call noalias ptr @_emalloc_48() #11
  br label %262

83:                                               ; preds = %78
  %84 = load i64, ptr %11, align 8
  %85 = icmp ule i64 %84, 56
  br i1 %85, label %86, label %88

86:                                               ; preds = %83
  %87 = call noalias ptr @_emalloc_56() #11
  br label %260

88:                                               ; preds = %83
  %89 = load i64, ptr %11, align 8
  %90 = icmp ule i64 %89, 64
  br i1 %90, label %91, label %93

91:                                               ; preds = %88
  %92 = call noalias ptr @_emalloc_64() #11
  br label %258

93:                                               ; preds = %88
  %94 = load i64, ptr %11, align 8
  %95 = icmp ule i64 %94, 80
  br i1 %95, label %96, label %98

96:                                               ; preds = %93
  %97 = call noalias ptr @_emalloc_80() #11
  br label %256

98:                                               ; preds = %93
  %99 = load i64, ptr %11, align 8
  %100 = icmp ule i64 %99, 96
  br i1 %100, label %101, label %103

101:                                              ; preds = %98
  %102 = call noalias ptr @_emalloc_96() #11
  br label %254

103:                                              ; preds = %98
  %104 = load i64, ptr %11, align 8
  %105 = icmp ule i64 %104, 112
  br i1 %105, label %106, label %108

106:                                              ; preds = %103
  %107 = call noalias ptr @_emalloc_112() #11
  br label %252

108:                                              ; preds = %103
  %109 = load i64, ptr %11, align 8
  %110 = icmp ule i64 %109, 128
  br i1 %110, label %111, label %113

111:                                              ; preds = %108
  %112 = call noalias ptr @_emalloc_128() #11
  br label %250

113:                                              ; preds = %108
  %114 = load i64, ptr %11, align 8
  %115 = icmp ule i64 %114, 160
  br i1 %115, label %116, label %118

116:                                              ; preds = %113
  %117 = call noalias ptr @_emalloc_160() #11
  br label %248

118:                                              ; preds = %113
  %119 = load i64, ptr %11, align 8
  %120 = icmp ule i64 %119, 192
  br i1 %120, label %121, label %123

121:                                              ; preds = %118
  %122 = call noalias ptr @_emalloc_192() #11
  br label %246

123:                                              ; preds = %118
  %124 = load i64, ptr %11, align 8
  %125 = icmp ule i64 %124, 224
  br i1 %125, label %126, label %128

126:                                              ; preds = %123
  %127 = call noalias ptr @_emalloc_224() #11
  br label %244

128:                                              ; preds = %123
  %129 = load i64, ptr %11, align 8
  %130 = icmp ule i64 %129, 256
  br i1 %130, label %131, label %133

131:                                              ; preds = %128
  %132 = call noalias ptr @_emalloc_256() #11
  br label %242

133:                                              ; preds = %128
  %134 = load i64, ptr %11, align 8
  %135 = icmp ule i64 %134, 320
  br i1 %135, label %136, label %138

136:                                              ; preds = %133
  %137 = call noalias ptr @_emalloc_320() #11
  br label %240

138:                                              ; preds = %133
  %139 = load i64, ptr %11, align 8
  %140 = icmp ule i64 %139, 384
  br i1 %140, label %141, label %143

141:                                              ; preds = %138
  %142 = call noalias ptr @_emalloc_384() #11
  br label %238

143:                                              ; preds = %138
  %144 = load i64, ptr %11, align 8
  %145 = icmp ule i64 %144, 448
  br i1 %145, label %146, label %148

146:                                              ; preds = %143
  %147 = call noalias ptr @_emalloc_448() #11
  br label %236

148:                                              ; preds = %143
  %149 = load i64, ptr %11, align 8
  %150 = icmp ule i64 %149, 512
  br i1 %150, label %151, label %153

151:                                              ; preds = %148
  %152 = call noalias ptr @_emalloc_512() #11
  br label %234

153:                                              ; preds = %148
  %154 = load i64, ptr %11, align 8
  %155 = icmp ule i64 %154, 640
  br i1 %155, label %156, label %158

156:                                              ; preds = %153
  %157 = call noalias ptr @_emalloc_640() #11
  br label %232

158:                                              ; preds = %153
  %159 = load i64, ptr %11, align 8
  %160 = icmp ule i64 %159, 768
  br i1 %160, label %161, label %163

161:                                              ; preds = %158
  %162 = call noalias ptr @_emalloc_768() #11
  br label %230

163:                                              ; preds = %158
  %164 = load i64, ptr %11, align 8
  %165 = icmp ule i64 %164, 896
  br i1 %165, label %166, label %168

166:                                              ; preds = %163
  %167 = call noalias ptr @_emalloc_896() #11
  br label %228

168:                                              ; preds = %163
  %169 = load i64, ptr %11, align 8
  %170 = icmp ule i64 %169, 1024
  br i1 %170, label %171, label %173

171:                                              ; preds = %168
  %172 = call noalias ptr @_emalloc_1024() #11
  br label %226

173:                                              ; preds = %168
  %174 = load i64, ptr %11, align 8
  %175 = icmp ule i64 %174, 1280
  br i1 %175, label %176, label %178

176:                                              ; preds = %173
  %177 = call noalias ptr @_emalloc_1280() #11
  br label %224

178:                                              ; preds = %173
  %179 = load i64, ptr %11, align 8
  %180 = icmp ule i64 %179, 1536
  br i1 %180, label %181, label %183

181:                                              ; preds = %178
  %182 = call noalias ptr @_emalloc_1536() #11
  br label %222

183:                                              ; preds = %178
  %184 = load i64, ptr %11, align 8
  %185 = icmp ule i64 %184, 1792
  br i1 %185, label %186, label %188

186:                                              ; preds = %183
  %187 = call noalias ptr @_emalloc_1792() #11
  br label %220

188:                                              ; preds = %183
  %189 = load i64, ptr %11, align 8
  %190 = icmp ule i64 %189, 2048
  br i1 %190, label %191, label %193

191:                                              ; preds = %188
  %192 = call noalias ptr @_emalloc_2048() #11
  br label %218

193:                                              ; preds = %188
  %194 = load i64, ptr %11, align 8
  %195 = icmp ule i64 %194, 2560
  br i1 %195, label %196, label %198

196:                                              ; preds = %193
  %197 = call noalias ptr @_emalloc_2560() #11
  br label %216

198:                                              ; preds = %193
  %199 = load i64, ptr %11, align 8
  %200 = icmp ule i64 %199, 3072
  br i1 %200, label %201, label %203

201:                                              ; preds = %198
  %202 = call noalias ptr @_emalloc_3072() #11
  br label %214

203:                                              ; preds = %198
  %204 = load i64, ptr %11, align 8
  %205 = icmp ule i64 %204, 2093056
  br i1 %205, label %206, label %209

206:                                              ; preds = %203
  %207 = load i64, ptr %11, align 8
  %208 = call noalias ptr @_emalloc_large(i64 noundef %207) #12
  br label %212

209:                                              ; preds = %203
  %210 = load i64, ptr %11, align 8
  %211 = call noalias ptr @_emalloc_huge(i64 noundef %210) #12
  br label %212

212:                                              ; preds = %209, %206
  %213 = phi ptr [ %208, %206 ], [ %211, %209 ]
  br label %214

214:                                              ; preds = %212, %201
  %215 = phi ptr [ %202, %201 ], [ %213, %212 ]
  br label %216

216:                                              ; preds = %214, %196
  %217 = phi ptr [ %197, %196 ], [ %215, %214 ]
  br label %218

218:                                              ; preds = %216, %191
  %219 = phi ptr [ %192, %191 ], [ %217, %216 ]
  br label %220

220:                                              ; preds = %218, %186
  %221 = phi ptr [ %187, %186 ], [ %219, %218 ]
  br label %222

222:                                              ; preds = %220, %181
  %223 = phi ptr [ %182, %181 ], [ %221, %220 ]
  br label %224

224:                                              ; preds = %222, %176
  %225 = phi ptr [ %177, %176 ], [ %223, %222 ]
  br label %226

226:                                              ; preds = %224, %171
  %227 = phi ptr [ %172, %171 ], [ %225, %224 ]
  br label %228

228:                                              ; preds = %226, %166
  %229 = phi ptr [ %167, %166 ], [ %227, %226 ]
  br label %230

230:                                              ; preds = %228, %161
  %231 = phi ptr [ %162, %161 ], [ %229, %228 ]
  br label %232

232:                                              ; preds = %230, %156
  %233 = phi ptr [ %157, %156 ], [ %231, %230 ]
  br label %234

234:                                              ; preds = %232, %151
  %235 = phi ptr [ %152, %151 ], [ %233, %232 ]
  br label %236

236:                                              ; preds = %234, %146
  %237 = phi ptr [ %147, %146 ], [ %235, %234 ]
  br label %238

238:                                              ; preds = %236, %141
  %239 = phi ptr [ %142, %141 ], [ %237, %236 ]
  br label %240

240:                                              ; preds = %238, %136
  %241 = phi ptr [ %137, %136 ], [ %239, %238 ]
  br label %242

242:                                              ; preds = %240, %131
  %243 = phi ptr [ %132, %131 ], [ %241, %240 ]
  br label %244

244:                                              ; preds = %242, %126
  %245 = phi ptr [ %127, %126 ], [ %243, %242 ]
  br label %246

246:                                              ; preds = %244, %121
  %247 = phi ptr [ %122, %121 ], [ %245, %244 ]
  br label %248

248:                                              ; preds = %246, %116
  %249 = phi ptr [ %117, %116 ], [ %247, %246 ]
  br label %250

250:                                              ; preds = %248, %111
  %251 = phi ptr [ %112, %111 ], [ %249, %248 ]
  br label %252

252:                                              ; preds = %250, %106
  %253 = phi ptr [ %107, %106 ], [ %251, %250 ]
  br label %254

254:                                              ; preds = %252, %101
  %255 = phi ptr [ %102, %101 ], [ %253, %252 ]
  br label %256

256:                                              ; preds = %254, %96
  %257 = phi ptr [ %97, %96 ], [ %255, %254 ]
  br label %258

258:                                              ; preds = %256, %91
  %259 = phi ptr [ %92, %91 ], [ %257, %256 ]
  br label %260

260:                                              ; preds = %258, %86
  %261 = phi ptr [ %87, %86 ], [ %259, %258 ]
  br label %262

262:                                              ; preds = %260, %81
  %263 = phi ptr [ %82, %81 ], [ %261, %260 ]
  br label %264

264:                                              ; preds = %262, %76
  %265 = phi ptr [ %77, %76 ], [ %263, %262 ]
  br label %266

266:                                              ; preds = %264, %71
  %267 = phi ptr [ %72, %71 ], [ %265, %264 ]
  br label %268

268:                                              ; preds = %266, %66
  %269 = phi ptr [ %67, %66 ], [ %267, %266 ]
  br label %270

270:                                              ; preds = %268, %61
  %271 = phi ptr [ %62, %61 ], [ %269, %268 ]
  br label %272

272:                                              ; preds = %270, %56
  %273 = phi ptr [ %57, %56 ], [ %271, %270 ]
  br label %277

274:                                              ; preds = %50
  %275 = load i64, ptr %11, align 8
  %276 = call noalias ptr @_emalloc(i64 noundef %275) #12
  br label %277

277:                                              ; preds = %274, %272
  %278 = phi ptr [ %273, %272 ], [ %276, %274 ]
  br label %279

279:                                              ; preds = %277, %47
  %280 = phi ptr [ %49, %47 ], [ %278, %277 ]
  store ptr %280, ptr %12, align 8
  %281 = load ptr, ptr %12, align 8
  %282 = load ptr, ptr %10, align 8
  %283 = load i64, ptr %11, align 8
  call void @llvm.memcpy.p0.p0.i64(ptr align 1 %281, ptr align 1 %282, i64 %283, i1 false)
  %284 = load ptr, ptr %8, align 8
  %285 = load i64, ptr %9, align 8
  %286 = load ptr, ptr %12, align 8
  store ptr %284, ptr %2, align 8
  store i64 %285, ptr %3, align 8
  store ptr %286, ptr %4, align 8
  %287 = load ptr, ptr %4, align 8
  store ptr %287, ptr %5, align 8
  %288 = getelementptr inbounds %struct._zval_struct, ptr %5, i32 0, i32 1
  store i32 13, ptr %288, align 8
  %289 = load ptr, ptr %2, align 8
  %290 = load i64, ptr %3, align 8
  %291 = call ptr @zend_hash_index_update(ptr noundef %289, i64 noundef %290, ptr noundef %5) #11
  store ptr %291, ptr %6, align 8
  %292 = load ptr, ptr %6, align 8
  %293 = load ptr, ptr %292, align 8
  %294 = icmp ne ptr %293, null
  call void @llvm.assume(i1 %294)
  %295 = load i32, ptr getelementptr inbounds (%struct._zend_phpdbg_globals, ptr @phpdbg_globals, i32 0, i32 39, i64 1), align 4
  %296 = getelementptr inbounds %struct._phpdbg_breakline_t, ptr %16, i32 0, i32 0
  %297 = load i32, ptr %296, align 8
  %298 = getelementptr inbounds %struct._phpdbg_breakline_t, ptr %16, i32 0, i32 5
  %299 = load i64, ptr %298, align 8
  %300 = call i32 (i32, i32, ptr, ...) @phpdbg_print(i32 noundef 2, i32 noundef %295, ptr noundef @.str.25, i32 noundef %297, i64 noundef %299)
  %301 = getelementptr inbounds %struct._phpdbg_breakline_t, ptr %16, i32 0, i32 0
  %302 = load i32, ptr %301, align 8
  call void @_phpdbg_break_mapping(i32 noundef %302, ptr noundef getelementptr inbounds ([11 x %struct._zend_array], ptr @phpdbg_globals, i64 0, i64 3))
  br label %308

303:                                              ; preds = %1
  %304 = load i32, ptr getelementptr inbounds (%struct._zend_phpdbg_globals, ptr @phpdbg_globals, i32 0, i32 39, i64 1), align 4
  %305 = load ptr, ptr %15, align 8
  %306 = ptrtoint ptr %305 to i64
  %307 = call i32 (i32, i32, ptr, ...) @phpdbg_print(i32 noundef 1, i32 noundef %304, ptr noundef @.str.44, i64 noundef %306)
  br label %308

308:                                              ; preds = %303, %279
  ret void
}