; Function Attrs: nounwind uwtable
define void @phpdbg_set_breakpoint_opline_ex(ptr noundef %0) local_unnamed_addr #1 {
  %2 = alloca %struct._zval_struct, align 8
  %3 = alloca %struct._zval_struct, align 8
  %4 = ptrtoint ptr %0 to i64
  %5 = tail call ptr @zend_hash_index_find(ptr noundef nonnull getelementptr inbounds (%struct._zend_phpdbg_globals, ptr @phpdbg_globals, i64 0, i32 0, i64 3), i64 noundef %4) #14
  %.not = icmp eq ptr %5, null
  br i1 %.not, label %6, label %30

6:                                                ; preds = %1
  %7 = load i64, ptr getelementptr inbounds (%struct._zend_phpdbg_globals, ptr @phpdbg_globals, i64 0, i32 53), align 8
  %8 = or i64 %7, 16
  store i64 %8, ptr getelementptr inbounds (%struct._zend_phpdbg_globals, ptr @phpdbg_globals, i64 0, i32 53), align 8
  %9 = load i32, ptr getelementptr inbounds (%struct._zend_phpdbg_globals, ptr @phpdbg_globals, i64 0, i32 28), align 8
  %10 = add nsw i32 %9, 1
  store i32 %10, ptr getelementptr inbounds (%struct._zend_phpdbg_globals, ptr @phpdbg_globals, i64 0, i32 28), align 8
  %11 = load i32, ptr getelementptr inbounds (%struct._zend_phpdbg_globals, ptr @phpdbg_globals, i64 0, i32 0, i64 3, i32 0, i32 1), align 4
  %12 = and i32 %11, 128
  %.not59 = icmp eq i32 %12, 0
  br i1 %.not59, label %15, label %13

13:                                               ; preds = %6
  %14 = tail call noalias dereferenceable_or_null(48) ptr @__zend_malloc(i64 noundef 48) #16
  br label %17

15:                                               ; preds = %6
  %16 = tail call noalias ptr @_emalloc_48() #14
  br label %17

17:                                               ; preds = %15, %13
  %18 = phi ptr [ %14, %13 ], [ %16, %15 ]
  store i32 %9, ptr %18, align 1
  %.sroa.5.0..sroa_idx = getelementptr inbounds i8, ptr %18, i64 4
  store i8 3, ptr %.sroa.5.0..sroa_idx, align 1
  %.sroa.6.0..sroa_idx = getelementptr inbounds i8, ptr %18, i64 5
  %.sroa.855.0..sroa_idx = getelementptr inbounds i8, ptr %18, i64 32
  tail call void @llvm.memset.p0.i64(ptr noundef nonnull align 1 dereferenceable(27) %.sroa.6.0..sroa_idx, i8 0, i64 27, i1 false)
  store i64 %4, ptr %.sroa.855.0..sroa_idx, align 1
  %.sroa.10.0..sroa_idx = getelementptr inbounds i8, ptr %18, i64 40
  store ptr null, ptr %.sroa.10.0..sroa_idx, align 1
  store ptr %18, ptr %3, align 8
  %19 = getelementptr inbounds i8, ptr %3, i64 8
  store i32 13, ptr %19, align 8
  %20 = call ptr @zend_hash_index_update(ptr noundef nonnull getelementptr inbounds (%struct._zend_phpdbg_globals, ptr @phpdbg_globals, i64 0, i32 0, i64 3), i64 noundef %4, ptr noundef nonnull %3) #14
  %21 = load ptr, ptr %20, align 8
  %22 = icmp ne ptr %21, null
  call void @llvm.assume(i1 %22)
  %23 = load i32, ptr getelementptr inbounds (%struct._zend_phpdbg_globals, ptr @phpdbg_globals, i64 0, i32 39, i64 1), align 4
  %24 = call i32 (i32, i32, ptr, ...) @phpdbg_print(i32 noundef 2, i32 noundef %23, ptr noundef nonnull @.str.25, i32 noundef %9, i64 noundef %4) #14
  call void @llvm.lifetime.start.p0(i64 16, ptr nonnull %2)
  %25 = sext i32 %9 to i64
  store ptr getelementptr inbounds (%struct._zend_phpdbg_globals, ptr @phpdbg_globals, i64 0, i32 0, i64 3), ptr %2, align 8
  %26 = getelementptr inbounds i8, ptr %2, i64 8
  store i32 13, ptr %26, align 8
  %27 = call ptr @zend_hash_index_update(ptr noundef nonnull getelementptr inbounds (%struct._zend_phpdbg_globals, ptr @phpdbg_globals, i64 0, i32 0, i64 10), i64 noundef %25, ptr noundef nonnull %2) #14
  %28 = load ptr, ptr %27, align 8
  %29 = icmp ne ptr %28, null
  call void @llvm.assume(i1 %29)
  call void @llvm.lifetime.end.p0(i64 16, ptr nonnull %2)
  br label %33

30:                                               ; preds = %1
  %31 = load i32, ptr getelementptr inbounds (%struct._zend_phpdbg_globals, ptr @phpdbg_globals, i64 0, i32 39, i64 1), align 4
  %32 = tail call i32 (i32, i32, ptr, ...) @phpdbg_print(i32 noundef 1, i32 noundef %31, ptr noundef nonnull @.str.44, i64 noundef %4) #14
  br label %33

33:                                               ; preds = %30, %17
  ret void
}